target datalayout = "e-m:e-p270:32:32-p271:32:32-p272:64:64-i64:64-i128:128-f80:128-n8:16:32:64-S128"
target triple = "x86_64-pc-linux-gnu"

%"struct.std::atomic" = type { %"struct.std::__atomic_base" }
%"struct.std::__atomic_base" = type { i64 }
%"struct.Stockfish::(anonymous namespace)::DebugInfo.1" = type { [6 x %"struct.std::atomic"] }

@_ZN9Stockfish12_GLOBAL__N_16correlE = internal global [32 x %"struct.Stockfish::(anonymous namespace)::DebugInfo.1"] zeroinitializer, align 16

; Function Attrs: mustprogress nounwind uwtable
define linkonce_odr dso_local noundef i64 @_ZNSt13__atomic_baseIlEpLEl(ptr noundef nonnull align 8 dereferenceable(8) %0, i64 noundef %1) #4 comdat align 2 {
  %3 = alloca ptr, align 8
  %4 = alloca i64, align 8
  %5 = alloca i64, align 8
  %6 = alloca i64, align 8
  store ptr %0, ptr %3, align 8
  store i64 %1, ptr %4, align 8
  %7 = load ptr, ptr %3, align 8
  %8 = getelementptr inbounds %"struct.std::__atomic_base", ptr %7, i32 0, i32 0
  %9 = load i64, ptr %4, align 8
  store i64 %9, ptr %5, align 8
  %10 = load i64, ptr %5, align 8
  %11 = atomicrmw add ptr %8, i64 %10 seq_cst, align 8
  %12 = add i64 %11, %10
  store i64 %12, ptr %6, align 8
  %13 = load i64, ptr %6, align 8
  ret i64 %13
}

; Function Attrs: mustprogress nounwind uwtable
define linkonce_odr dso_local noundef i64 @_ZNSt13__atomic_baseIlEppEv(ptr noundef nonnull align 8 dereferenceable(8) %0) #4 comdat align 2 {
  %2 = alloca ptr, align 8
  %3 = alloca i64, align 8
  %4 = alloca i64, align 8
  store ptr %0, ptr %2, align 8
  %5 = load ptr, ptr %2, align 8
  %6 = getelementptr inbounds %"struct.std::__atomic_base", ptr %5, i32 0, i32 0
  store i64 1, ptr %3, align 8
  %7 = load i64, ptr %3, align 8
  %8 = atomicrmw add ptr %6, i64 %7 seq_cst, align 8
  %9 = add i64 %8, %7
  store i64 %9, ptr %4, align 8
  %10 = load i64, ptr %4, align 8
  ret i64 %10
}

; Function Attrs: mustprogress nounwind uwtable
define internal noundef nonnull align 8 dereferenceable(8) ptr @_ZN9Stockfish12_GLOBAL__N_19DebugInfoILm6EEixEi(ptr noundef nonnull align 8 dereferenceable(48) %0, i32 noundef %1) #4 align 2 {
  %3 = alloca ptr, align 8
  %4 = alloca i32, align 4
  store ptr %0, ptr %3, align 8
  store i32 %1, ptr %4, align 4
  %5 = load ptr, ptr %3, align 8
  %6 = getelementptr inbounds %"struct.Stockfish::(anonymous namespace)::DebugInfo.1", ptr %5, i32 0, i32 0
  %7 = load i32, ptr %4, align 4
  %8 = sext i32 %7 to i64
  %9 = getelementptr inbounds [6 x %"struct.std::atomic"], ptr %6, i64 0, i64 %8
  ret ptr %9
}

; Function Attrs: mustprogress nounwind uwtable
define dso_local void @_ZN9Stockfish13dbg_correl_ofElli(i64 noundef %0, i64 noundef %1, i32 noundef %2) #4 {
  %4 = alloca i64, align 8
  %5 = alloca i64, align 8
  %6 = alloca i32, align 4
  store i64 %0, ptr %4, align 8
  store i64 %1, ptr %5, align 8
  store i32 %2, ptr %6, align 4
  %7 = load i32, ptr %6, align 4
  %8 = sext i32 %7 to i64
  %9 = getelementptr inbounds [32 x %"struct.Stockfish::(anonymous namespace)::DebugInfo.1"], ptr @_ZN9Stockfish12_GLOBAL__N_16correlE, i64 0, i64 %8
  %10 = call noundef nonnull align 8 dereferenceable(8) ptr @_ZN9Stockfish12_GLOBAL__N_19DebugInfoILm6EEixEi(ptr noundef nonnull align 8 dereferenceable(48) %9, i32 noundef 0)
  %11 = call noundef i64 @_ZNSt13__atomic_baseIlEppEv(ptr noundef nonnull align 8 dereferenceable(8) %10) #3
  %12 = load i64, ptr %4, align 8
  %13 = load i32, ptr %6, align 4
  %14 = sext i32 %13 to i64
  %15 = getelementptr inbounds [32 x %"struct.Stockfish::(anonymous namespace)::DebugInfo.1"], ptr @_ZN9Stockfish12_GLOBAL__N_16correlE, i64 0, i64 %14
  %16 = call noundef nonnull align 8 dereferenceable(8) ptr @_ZN9Stockfish12_GLOBAL__N_19DebugInfoILm6EEixEi(ptr noundef nonnull align 8 dereferenceable(48) %15, i32 noundef 1)
  %17 = call noundef i64 @_ZNSt13__atomic_baseIlEpLEl(ptr noundef nonnull align 8 dereferenceable(8) %16, i64 noundef %12) #3
  %18 = load i64, ptr %4, align 8
  %19 = load i64, ptr %4, align 8
  %20 = mul nsw i64 %18, %19
  %21 = load i32, ptr %6, align 4
  %22 = sext i32 %21 to i64
  %23 = getelementptr inbounds [32 x %"struct.Stockfish::(anonymous namespace)::DebugInfo.1"], ptr @_ZN9Stockfish12_GLOBAL__N_16correlE, i64 0, i64 %22
  %24 = call noundef nonnull align 8 dereferenceable(8) ptr @_ZN9Stockfish12_GLOBAL__N_19DebugInfoILm6EEixEi(ptr noundef nonnull align 8 dereferenceable(48) %23, i32 noundef 2)
  %25 = call noundef i64 @_ZNSt13__atomic_baseIlEpLEl(ptr noundef nonnull align 8 dereferenceable(8) %24, i64 noundef %20) #3
  %26 = load i64, ptr %5, align 8
  %27 = load i32, ptr %6, align 4
  %28 = sext i32 %27 to i64
  %29 = getelementptr inbounds [32 x %"struct.Stockfish::(anonymous namespace)::DebugInfo.1"], ptr @_ZN9Stockfish12_GLOBAL__N_16correlE, i64 0, i64 %28
  %30 = call noundef nonnull align 8 dereferenceable(8) ptr @_ZN9Stockfish12_GLOBAL__N_19DebugInfoILm6EEixEi(ptr noundef nonnull align 8 dereferenceable(48) %29, i32 noundef 3)
  %31 = call noundef i64 @_ZNSt13__atomic_baseIlEpLEl(ptr noundef nonnull align 8 dereferenceable(8) %30, i64 noundef %26) #3
  %32 = load i64, ptr %5, align 8
  %33 = load i64, ptr %5, align 8
  %34 = mul nsw i64 %32, %33
  %35 = load i32, ptr %6, align 4
  %36 = sext i32 %35 to i64
  %37 = getelementptr inbounds [32 x %"struct.Stockfish::(anonymous namespace)::DebugInfo.1"], ptr @_ZN9Stockfish12_GLOBAL__N_16correlE, i64 0, i64 %36
  %38 = call noundef nonnull align 8 dereferenceable(8) ptr @_ZN9Stockfish12_GLOBAL__N_19DebugInfoILm6EEixEi(ptr noundef nonnull align 8 dereferenceable(48) %37, i32 noundef 4)
  %39 = call noundef i64 @_ZNSt13__atomic_baseIlEpLEl(ptr noundef nonnull align 8 dereferenceable(8) %38, i64 noundef %34) #3
  %40 = load i64, ptr %4, align 8
  %41 = load i64, ptr %5, align 8
  %42 = mul nsw i64 %40, %41
  %43 = load i32, ptr %6, align 4
  %44 = sext i32 %43 to i64
  %45 = getelementptr inbounds [32 x %"struct.Stockfish::(anonymous namespace)::DebugInfo.1"], ptr @_ZN9Stockfish12_GLOBAL__N_16correlE, i64 0, i64 %44
  %46 = call noundef nonnull align 8 dereferenceable(8) ptr @_ZN9Stockfish12_GLOBAL__N_19DebugInfoILm6EEixEi(ptr noundef nonnull align 8 dereferenceable(48) %45, i32 noundef 5)
  %47 = call noundef i64 @_ZNSt13__atomic_baseIlEpLEl(ptr noundef nonnull align 8 dereferenceable(8) %46, i64 noundef %42) #3
  ret void
}