; Function Attrs: mustprogress nofree norecurse nounwind willreturn memory(readwrite, argmem: none, inaccessiblemem: none) uwtable
define dso_local void @_ZN9Stockfish13dbg_correl_ofElli(i64 noundef %0, i64 noundef %1, i32 noundef %2) local_unnamed_addr #4 {
  %4 = sext i32 %2 to i64
  %5 = getelementptr inbounds [32 x %"struct.Stockfish::(anonymous namespace)::DebugInfo.1"], ptr @_ZN9Stockfish12_GLOBAL__N_16correlE, i64 0, i64 %4
  %6 = atomicrmw add ptr %5, i64 1 seq_cst, align 8
  %7 = getelementptr inbounds i8, ptr %5, i64 8
  %8 = atomicrmw add ptr %7, i64 %0 seq_cst, align 8
  %9 = mul nsw i64 %0, %0
  %10 = getelementptr inbounds i8, ptr %5, i64 16
  %11 = atomicrmw add ptr %10, i64 %9 seq_cst, align 8
  %12 = getelementptr inbounds i8, ptr %5, i64 24
  %13 = atomicrmw add ptr %12, i64 %1 seq_cst, align 8
  %14 = mul nsw i64 %1, %1
  %15 = getelementptr inbounds i8, ptr %5, i64 32
  %16 = atomicrmw add ptr %15, i64 %14 seq_cst, align 8
  %17 = mul nsw i64 %1, %0
  %18 = getelementptr inbounds i8, ptr %5, i64 40
  %19 = atomicrmw add ptr %18, i64 %17 seq_cst, align 8
  ret void
}